target datalayout = "e-m:e-p270:32:32-p271:32:32-p272:64:64-i64:64-i128:128-f80:128-n8:16:32:64-S128"
target triple = "x86_64-pc-linux-gnu"

%struct.jpeg_decompress_struct = type { ptr, ptr, ptr, ptr, i32, i32, ptr, i32, i32, i32, i32, i32, i32, i32, double, i32, i32, i32, i32, i32, i32, i32, i32, i32, i32, i32, i32, i32, i32, i32, i32, i32, i32, ptr, i32, i32, i32, i32, i32, ptr, [4 x ptr], [4 x ptr], [4 x ptr], i32, ptr, i32, i32, [16 x i8], [16 x i8], [16 x i8], i32, i32, i8, i8, i8, i16, i16, i32, i8, i32, ptr, i32, i32, i32, i32, ptr, i32, [4 x ptr], i32, i32, i32, [10 x i32], i32, i32, i32, i32, i32, ptr, ptr, ptr, ptr, ptr, ptr, ptr, ptr, ptr, ptr, ptr }
%struct.sun_jpeg_source_mgr = type { %struct.jpeg_source_mgr, ptr, i32, i64, ptr, ptr, i64, %union.pixptr, i64, ptr }
%struct.jpeg_source_mgr = type { ptr, i64, ptr, ptr, ptr, ptr, ptr }
%union.pixptr = type { ptr }
%struct.JNINativeInterface_ = type { ptr, ptr, ptr, ptr, ptr, ptr, ptr, ptr, ptr, ptr, ptr, ptr, ptr, ptr, ptr, ptr, ptr, ptr, ptr, ptr, ptr, ptr, ptr, ptr, ptr, ptr, ptr, ptr, ptr, ptr, ptr, ptr, ptr, ptr, ptr, ptr, ptr, ptr, ptr, ptr, ptr, ptr, ptr, ptr, ptr, ptr, ptr, ptr, ptr, ptr, ptr, ptr, ptr, ptr, ptr, ptr, ptr, ptr, ptr, ptr, ptr, ptr, ptr, ptr, ptr, ptr, ptr, ptr, ptr, ptr, ptr, ptr, ptr, ptr, ptr, ptr, ptr, ptr, ptr, ptr, ptr, ptr, ptr, ptr, ptr, ptr, ptr, ptr, ptr, ptr, ptr, ptr, ptr, ptr, ptr, ptr, ptr, ptr, ptr, ptr, ptr, ptr, ptr, ptr, ptr, ptr, ptr, ptr, ptr, ptr, ptr, ptr, ptr, ptr, ptr, ptr, ptr, ptr, ptr, ptr, ptr, ptr, ptr, ptr, ptr, ptr, ptr, ptr, ptr, ptr, ptr, ptr, ptr, ptr, ptr, ptr, ptr, ptr, ptr, ptr, ptr, ptr, ptr, ptr, ptr, ptr, ptr, ptr, ptr, ptr, ptr, ptr, ptr, ptr, ptr, ptr, ptr, ptr, ptr, ptr, ptr, ptr, ptr, ptr, ptr, ptr, ptr, ptr, ptr, ptr, ptr, ptr, ptr, ptr, ptr, ptr, ptr, ptr, ptr, ptr, ptr, ptr, ptr, ptr, ptr, ptr, ptr, ptr, ptr, ptr, ptr, ptr, ptr, ptr, ptr, ptr, ptr, ptr, ptr, ptr, ptr, ptr, ptr, ptr, ptr, ptr, ptr, ptr, ptr, ptr, ptr, ptr, ptr, ptr, ptr, ptr, ptr, ptr, ptr, ptr, ptr, ptr, ptr, ptr, ptr, ptr, ptr, ptr, ptr, ptr, ptr, ptr, ptr, ptr, ptr }
%struct.jpeg_error_mgr = type { ptr, ptr, ptr, ptr, ptr, i32, %union.anon, i32, i64, ptr, i32, ptr, i32, i32 }
%union.anon = type { [8 x i32], [48 x i8] }

@the_jvm = hidden global ptr null, align 8
@InputStream_readID = internal global ptr null, align 8

; Function Attrs: nounwind uwtable
define internal i32 @GET_ARRAYS(ptr noundef %0, ptr noundef %1) #0 {
  %3 = alloca i32, align 4
  %4 = alloca ptr, align 8
  %5 = alloca ptr, align 8
  store ptr %0, ptr %4, align 8
  store ptr %1, ptr %5, align 8
  %6 = load ptr, ptr %5, align 8
  %7 = getelementptr inbounds %struct.sun_jpeg_source_mgr, ptr %6, i32 0, i32 9
  %8 = load ptr, ptr %7, align 8
  %9 = icmp ne ptr %8, null
  br i1 %9, label %10, label %40

10:                                               ; preds = %2
  %11 = load ptr, ptr %4, align 8
  %12 = load ptr, ptr %11, align 8
  %13 = getelementptr inbounds %struct.JNINativeInterface_, ptr %12, i32 0, i32 171
  %14 = load ptr, ptr %13, align 8
  %15 = load ptr, ptr %4, align 8
  %16 = load ptr, ptr %5, align 8
  %17 = getelementptr inbounds %struct.sun_jpeg_source_mgr, ptr %16, i32 0, i32 9
  %18 = load ptr, ptr %17, align 8
  %19 = call i32 %14(ptr noundef %15, ptr noundef %18)
  %20 = sext i32 %19 to i64
  %21 = load ptr, ptr %5, align 8
  %22 = getelementptr inbounds %struct.sun_jpeg_source_mgr, ptr %21, i32 0, i32 8
  store i64 %20, ptr %22, align 8
  %23 = load ptr, ptr %4, align 8
  %24 = load ptr, ptr %23, align 8
  %25 = getelementptr inbounds %struct.JNINativeInterface_, ptr %24, i32 0, i32 222
  %26 = load ptr, ptr %25, align 8
  %27 = load ptr, ptr %4, align 8
  %28 = load ptr, ptr %5, align 8
  %29 = getelementptr inbounds %struct.sun_jpeg_source_mgr, ptr %28, i32 0, i32 9
  %30 = load ptr, ptr %29, align 8
  %31 = call ptr %26(ptr noundef %27, ptr noundef %30, ptr noundef null)
  %32 = load ptr, ptr %5, align 8
  %33 = getelementptr inbounds %struct.sun_jpeg_source_mgr, ptr %32, i32 0, i32 7
  store ptr %31, ptr %33, align 8
  %34 = load ptr, ptr %5, align 8
  %35 = getelementptr inbounds %struct.sun_jpeg_source_mgr, ptr %34, i32 0, i32 7
  %36 = load ptr, ptr %35, align 8
  %37 = icmp eq ptr %36, null
  br i1 %37, label %38, label %39

38:                                               ; preds = %10
  store i32 0, ptr %3, align 4
  br label %83

39:                                               ; preds = %10
  br label %40

40:                                               ; preds = %39, %2
  %41 = load ptr, ptr %5, align 8
  %42 = getelementptr inbounds %struct.sun_jpeg_source_mgr, ptr %41, i32 0, i32 5
  %43 = load ptr, ptr %42, align 8
  %44 = icmp ne ptr %43, null
  br i1 %44, label %45, label %82

45:                                               ; preds = %40
  %46 = load ptr, ptr %4, align 8
  %47 = load ptr, ptr %46, align 8
  %48 = getelementptr inbounds %struct.JNINativeInterface_, ptr %47, i32 0, i32 222
  %49 = load ptr, ptr %48, align 8
  %50 = load ptr, ptr %4, align 8
  %51 = load ptr, ptr %5, align 8
  %52 = getelementptr inbounds %struct.sun_jpeg_source_mgr, ptr %51, i32 0, i32 5
  %53 = load ptr, ptr %52, align 8
  %54 = call ptr %49(ptr noundef %50, ptr noundef %53, ptr noundef null)
  %55 = load ptr, ptr %5, align 8
  %56 = getelementptr inbounds %struct.sun_jpeg_source_mgr, ptr %55, i32 0, i32 4
  store ptr %54, ptr %56, align 8
  %57 = load ptr, ptr %5, align 8
  %58 = getelementptr inbounds %struct.sun_jpeg_source_mgr, ptr %57, i32 0, i32 4
  %59 = load ptr, ptr %58, align 8
  %60 = icmp eq ptr %59, null
  br i1 %60, label %61, label %64

61:                                               ; preds = %45
  %62 = load ptr, ptr %4, align 8
  %63 = load ptr, ptr %5, align 8
  call void @RELEASE_ARRAYS(ptr noundef %62, ptr noundef %63)
  store i32 0, ptr %3, align 4
  br label %83

64:                                               ; preds = %45
  %65 = load ptr, ptr %5, align 8
  %66 = getelementptr inbounds %struct.sun_jpeg_source_mgr, ptr %65, i32 0, i32 6
  %67 = load i64, ptr %66, align 8
  %68 = trunc i64 %67 to i32
  %69 = icmp sge i32 %68, 0
  br i1 %69, label %70, label %81

70:                                               ; preds = %64
  %71 = load ptr, ptr %5, align 8
  %72 = getelementptr inbounds %struct.sun_jpeg_source_mgr, ptr %71, i32 0, i32 4
  %73 = load ptr, ptr %72, align 8
  %74 = load ptr, ptr %5, align 8
  %75 = getelementptr inbounds %struct.sun_jpeg_source_mgr, ptr %74, i32 0, i32 6
  %76 = load i64, ptr %75, align 8
  %77 = getelementptr inbounds i8, ptr %73, i64 %76
  %78 = load ptr, ptr %5, align 8
  %79 = getelementptr inbounds %struct.sun_jpeg_source_mgr, ptr %78, i32 0, i32 0
  %80 = getelementptr inbounds %struct.jpeg_source_mgr, ptr %79, i32 0, i32 0
  store ptr %77, ptr %80, align 8
  br label %81

81:                                               ; preds = %70, %64
  br label %82

82:                                               ; preds = %81, %40
  store i32 1, ptr %3, align 4
  br label %83

83:                                               ; preds = %82, %61, %38
  %84 = load i32, ptr %3, align 4
  ret i32 %84
}

; Function Attrs: nounwind uwtable
define internal void @RELEASE_ARRAYS(ptr noundef %0, ptr noundef %1) #0 {
  %3 = alloca ptr, align 8
  %4 = alloca ptr, align 8
  store ptr %0, ptr %3, align 8
  store ptr %1, ptr %4, align 8
  %5 = load ptr, ptr %4, align 8
  %6 = getelementptr inbounds %struct.sun_jpeg_source_mgr, ptr %5, i32 0, i32 4
  %7 = load ptr, ptr %6, align 8
  %8 = icmp ne ptr %7, null
  br i1 %8, label %9, label %45

9:                                                ; preds = %2
  %10 = load ptr, ptr %4, align 8
  %11 = getelementptr inbounds %struct.sun_jpeg_source_mgr, ptr %10, i32 0, i32 0
  %12 = getelementptr inbounds %struct.jpeg_source_mgr, ptr %11, i32 0, i32 0
  %13 = load ptr, ptr %12, align 8
  %14 = icmp eq ptr %13, null
  br i1 %14, label %15, label %18

15:                                               ; preds = %9
  %16 = load ptr, ptr %4, align 8
  %17 = getelementptr inbounds %struct.sun_jpeg_source_mgr, ptr %16, i32 0, i32 6
  store i64 -1, ptr %17, align 8
  br label %31

18:                                               ; preds = %9
  %19 = load ptr, ptr %4, align 8
  %20 = getelementptr inbounds %struct.sun_jpeg_source_mgr, ptr %19, i32 0, i32 0
  %21 = getelementptr inbounds %struct.jpeg_source_mgr, ptr %20, i32 0, i32 0
  %22 = load ptr, ptr %21, align 8
  %23 = load ptr, ptr %4, align 8
  %24 = getelementptr inbounds %struct.sun_jpeg_source_mgr, ptr %23, i32 0, i32 4
  %25 = load ptr, ptr %24, align 8
  %26 = ptrtoint ptr %22 to i64
  %27 = ptrtoint ptr %25 to i64
  %28 = sub i64 %26, %27
  %29 = load ptr, ptr %4, align 8
  %30 = getelementptr inbounds %struct.sun_jpeg_source_mgr, ptr %29, i32 0, i32 6
  store i64 %28, ptr %30, align 8
  br label %31

31:                                               ; preds = %18, %15
  %32 = load ptr, ptr %3, align 8
  %33 = load ptr, ptr %32, align 8
  %34 = getelementptr inbounds %struct.JNINativeInterface_, ptr %33, i32 0, i32 223
  %35 = load ptr, ptr %34, align 8
  %36 = load ptr, ptr %3, align 8
  %37 = load ptr, ptr %4, align 8
  %38 = getelementptr inbounds %struct.sun_jpeg_source_mgr, ptr %37, i32 0, i32 5
  %39 = load ptr, ptr %38, align 8
  %40 = load ptr, ptr %4, align 8
  %41 = getelementptr inbounds %struct.sun_jpeg_source_mgr, ptr %40, i32 0, i32 4
  %42 = load ptr, ptr %41, align 8
  call void %35(ptr noundef %36, ptr noundef %39, ptr noundef %42, i32 noundef 0)
  %43 = load ptr, ptr %4, align 8
  %44 = getelementptr inbounds %struct.sun_jpeg_source_mgr, ptr %43, i32 0, i32 4
  store ptr null, ptr %44, align 8
  br label %45

45:                                               ; preds = %31, %2
  %46 = load ptr, ptr %4, align 8
  %47 = getelementptr inbounds %struct.sun_jpeg_source_mgr, ptr %46, i32 0, i32 7
  %48 = load ptr, ptr %47, align 8
  %49 = icmp ne ptr %48, null
  br i1 %49, label %50, label %64

50:                                               ; preds = %45
  %51 = load ptr, ptr %3, align 8
  %52 = load ptr, ptr %51, align 8
  %53 = getelementptr inbounds %struct.JNINativeInterface_, ptr %52, i32 0, i32 223
  %54 = load ptr, ptr %53, align 8
  %55 = load ptr, ptr %3, align 8
  %56 = load ptr, ptr %4, align 8
  %57 = getelementptr inbounds %struct.sun_jpeg_source_mgr, ptr %56, i32 0, i32 9
  %58 = load ptr, ptr %57, align 8
  %59 = load ptr, ptr %4, align 8
  %60 = getelementptr inbounds %struct.sun_jpeg_source_mgr, ptr %59, i32 0, i32 7
  %61 = load ptr, ptr %60, align 8
  call void %54(ptr noundef %55, ptr noundef %58, ptr noundef %61, i32 noundef 0)
  %62 = load ptr, ptr %4, align 8
  %63 = getelementptr inbounds %struct.sun_jpeg_source_mgr, ptr %62, i32 0, i32 7
  store ptr null, ptr %63, align 8
  br label %64

64:                                               ; preds = %50, %45
  ret void
}

; Function Attrs: nounwind uwtable
define hidden i32 @sun_jpeg_fill_input_buffer(ptr noundef %0) #0 {
  %2 = alloca i32, align 4
  %3 = alloca ptr, align 8
  %4 = alloca ptr, align 8
  %5 = alloca ptr, align 8
  %6 = alloca i32, align 4
  %7 = alloca i32, align 4
  store ptr %0, ptr %3, align 8
  %8 = load ptr, ptr %3, align 8
  %9 = getelementptr inbounds %struct.jpeg_decompress_struct, ptr %8, i32 0, i32 6
  %10 = load ptr, ptr %9, align 8
  store ptr %10, ptr %4, align 8
  %11 = load ptr, ptr @the_jvm, align 8
  %12 = call ptr @JNU_GetEnv(ptr noundef %11, i32 noundef 65538)
  store ptr %12, ptr %5, align 8
  %13 = load ptr, ptr %4, align 8
  %14 = getelementptr inbounds %struct.sun_jpeg_source_mgr, ptr %13, i32 0, i32 2
  %15 = load i32, ptr %14, align 8
  %16 = icmp ne i32 %15, 0
  br i1 %16, label %17, label %18

17:                                               ; preds = %1
  store i32 0, ptr %2, align 4
  br label %114

18:                                               ; preds = %1
  %19 = load ptr, ptr %4, align 8
  %20 = getelementptr inbounds %struct.sun_jpeg_source_mgr, ptr %19, i32 0, i32 3
  %21 = load i64, ptr %20, align 8
  %22 = icmp ne i64 %21, 0
  br i1 %22, label %23, label %29

23:                                               ; preds = %18
  %24 = load ptr, ptr %4, align 8
  %25 = getelementptr inbounds %struct.sun_jpeg_source_mgr, ptr %24, i32 0, i32 0
  %26 = getelementptr inbounds %struct.jpeg_source_mgr, ptr %25, i32 0, i32 4
  %27 = load ptr, ptr %26, align 8
  %28 = load ptr, ptr %3, align 8
  call void %27(ptr noundef %28, i64 noundef 0)
  br label %29

29:                                               ; preds = %23, %18
  %30 = load ptr, ptr %5, align 8
  %31 = load ptr, ptr %4, align 8
  call void @RELEASE_ARRAYS(ptr noundef %30, ptr noundef %31)
  %32 = load ptr, ptr %5, align 8
  %33 = load ptr, ptr %32, align 8
  %34 = getelementptr inbounds %struct.JNINativeInterface_, ptr %33, i32 0, i32 171
  %35 = load ptr, ptr %34, align 8
  %36 = load ptr, ptr %5, align 8
  %37 = load ptr, ptr %4, align 8
  %38 = getelementptr inbounds %struct.sun_jpeg_source_mgr, ptr %37, i32 0, i32 5
  %39 = load ptr, ptr %38, align 8
  %40 = call i32 %35(ptr noundef %36, ptr noundef %39)
  store i32 %40, ptr %7, align 4
  %41 = load ptr, ptr %5, align 8
  %42 = load ptr, ptr %41, align 8
  %43 = getelementptr inbounds %struct.JNINativeInterface_, ptr %42, i32 0, i32 49
  %44 = load ptr, ptr %43, align 8
  %45 = load ptr, ptr %5, align 8
  %46 = load ptr, ptr %4, align 8
  %47 = getelementptr inbounds %struct.sun_jpeg_source_mgr, ptr %46, i32 0, i32 1
  %48 = load ptr, ptr %47, align 8
  %49 = load ptr, ptr @InputStream_readID, align 8
  %50 = load ptr, ptr %4, align 8
  %51 = getelementptr inbounds %struct.sun_jpeg_source_mgr, ptr %50, i32 0, i32 5
  %52 = load ptr, ptr %51, align 8
  %53 = load i32, ptr %7, align 4
  %54 = call i32 (ptr, ptr, ptr, ...) %44(ptr noundef %45, ptr noundef %48, ptr noundef %49, ptr noundef %52, i32 noundef 0, i32 noundef %53)
  store i32 %54, ptr %6, align 4
  %55 = load i32, ptr %6, align 4
  %56 = load i32, ptr %7, align 4
  %57 = icmp sgt i32 %55, %56
  br i1 %57, label %58, label %60

58:                                               ; preds = %29
  %59 = load i32, ptr %7, align 4
  store i32 %59, ptr %6, align 4
  br label %60

60:                                               ; preds = %58, %29
  %61 = load ptr, ptr %5, align 8
  %62 = load ptr, ptr %61, align 8
  %63 = getelementptr inbounds %struct.JNINativeInterface_, ptr %62, i32 0, i32 15
  %64 = load ptr, ptr %63, align 8
  %65 = load ptr, ptr %5, align 8
  %66 = call ptr %64(ptr noundef %65)
  %67 = icmp ne ptr %66, null
  br i1 %67, label %73, label %68

68:                                               ; preds = %60
  %69 = load ptr, ptr %5, align 8
  %70 = load ptr, ptr %4, align 8
  %71 = call i32 @GET_ARRAYS(ptr noundef %69, ptr noundef %70)
  %72 = icmp ne i32 %71, 0
  br i1 %72, label %80, label %73

73:                                               ; preds = %68, %60
  %74 = load ptr, ptr %3, align 8
  %75 = getelementptr inbounds %struct.jpeg_decompress_struct, ptr %74, i32 0, i32 0
  %76 = load ptr, ptr %75, align 8
  %77 = getelementptr inbounds %struct.jpeg_error_mgr, ptr %76, i32 0, i32 0
  %78 = load ptr, ptr %77, align 8
  %79 = load ptr, ptr %3, align 8
  call void %78(ptr noundef %79)
  br label %80

80:                                               ; preds = %73, %68
  %81 = load i32, ptr %6, align 4
  %82 = icmp sle i32 %81, 0
  br i1 %82, label %83, label %102

83:                                               ; preds = %80
  %84 = load ptr, ptr %3, align 8
  %85 = getelementptr inbounds %struct.jpeg_decompress_struct, ptr %84, i32 0, i32 0
  %86 = load ptr, ptr %85, align 8
  %87 = getelementptr inbounds %struct.jpeg_error_mgr, ptr %86, i32 0, i32 5
  store i32 120, ptr %87, align 8
  %88 = load ptr, ptr %3, align 8
  %89 = getelementptr inbounds %struct.jpeg_decompress_struct, ptr %88, i32 0, i32 0
  %90 = load ptr, ptr %89, align 8
  %91 = getelementptr inbounds %struct.jpeg_error_mgr, ptr %90, i32 0, i32 1
  %92 = load ptr, ptr %91, align 8
  %93 = load ptr, ptr %3, align 8
  call void %92(ptr noundef %93, i32 noundef -1)
  %94 = load ptr, ptr %4, align 8
  %95 = getelementptr inbounds %struct.sun_jpeg_source_mgr, ptr %94, i32 0, i32 4
  %96 = load ptr, ptr %95, align 8
  %97 = getelementptr inbounds i8, ptr %96, i64 0
  store i8 -1, ptr %97, align 1
  %98 = load ptr, ptr %4, align 8
  %99 = getelementptr inbounds %struct.sun_jpeg_source_mgr, ptr %98, i32 0, i32 4
  %100 = load ptr, ptr %99, align 8
  %101 = getelementptr inbounds i8, ptr %100, i64 1
  store i8 -39, ptr %101, align 1
  store i32 2, ptr %6, align 4
  br label %102

102:                                              ; preds = %83, %80
  %103 = load ptr, ptr %4, align 8
  %104 = getelementptr inbounds %struct.sun_jpeg_source_mgr, ptr %103, i32 0, i32 4
  %105 = load ptr, ptr %104, align 8
  %106 = load ptr, ptr %4, align 8
  %107 = getelementptr inbounds %struct.sun_jpeg_source_mgr, ptr %106, i32 0, i32 0
  %108 = getelementptr inbounds %struct.jpeg_source_mgr, ptr %107, i32 0, i32 0
  store ptr %105, ptr %108, align 8
  %109 = load i32, ptr %6, align 4
  %110 = sext i32 %109 to i64
  %111 = load ptr, ptr %4, align 8
  %112 = getelementptr inbounds %struct.sun_jpeg_source_mgr, ptr %111, i32 0, i32 0
  %113 = getelementptr inbounds %struct.jpeg_source_mgr, ptr %112, i32 0, i32 1
  store i64 %110, ptr %113, align 8
  store i32 1, ptr %2, align 4
  br label %114

114:                                              ; preds = %102, %17
  %115 = load i32, ptr %2, align 4
  ret i32 %115
}