; Function Attrs: nounwind uwtable
define hidden range(i32 0, 2) i32 @sun_jpeg_fill_input_buffer(ptr noundef %0) #2 {
  %2 = getelementptr inbounds i8, ptr %0, i64 40
  %3 = load ptr, ptr %2, align 8
  %4 = load ptr, ptr @the_jvm, align 8
  %5 = tail call ptr @JNU_GetEnv(ptr noundef %4, i32 noundef 65538) #12
  %6 = getelementptr inbounds i8, ptr %3, i64 64
  %7 = load i32, ptr %6, align 8
  %.not = icmp eq i32 %7, 0
  br i1 %.not, label %8, label %110

8:                                                ; preds = %1
  %9 = getelementptr inbounds i8, ptr %3, i64 72
  %10 = load i64, ptr %9, align 8
  %.not37 = icmp eq i64 %10, 0
  br i1 %.not37, label %14, label %11

11:                                               ; preds = %8
  %12 = getelementptr inbounds i8, ptr %3, i64 32
  %13 = load ptr, ptr %12, align 8
  tail call void %13(ptr noundef nonnull %0, i64 noundef 0) #12
  br label %14

14:                                               ; preds = %11, %8
  %15 = getelementptr inbounds i8, ptr %3, i64 80
  %16 = load ptr, ptr %15, align 8
  %.not.i = icmp eq ptr %16, null
  br i1 %.not.i, label %29, label %17

17:                                               ; preds = %14
  %18 = load ptr, ptr %3, align 8
  %19 = icmp eq ptr %18, null
  %20 = ptrtoint ptr %18 to i64
  %21 = ptrtoint ptr %16 to i64
  %22 = sub i64 %20, %21
  %.sink.i = select i1 %19, i64 -1, i64 %22
  %23 = getelementptr inbounds i8, ptr %3, i64 96
  store i64 %.sink.i, ptr %23, align 8
  %24 = load ptr, ptr %5, align 8
  %25 = getelementptr inbounds i8, ptr %24, i64 1784
  %26 = load ptr, ptr %25, align 8
  %27 = getelementptr inbounds i8, ptr %3, i64 88
  %28 = load ptr, ptr %27, align 8
  tail call void %26(ptr noundef nonnull %5, ptr noundef %28, ptr noundef nonnull %16, i32 noundef 0) #12
  store ptr null, ptr %15, align 8
  br label %29

29:                                               ; preds = %17, %14
  %30 = getelementptr inbounds i8, ptr %3, i64 104
  %31 = load ptr, ptr %30, align 8
  %.not19.i = icmp eq ptr %31, null
  br i1 %.not19.i, label %RELEASE_ARRAYS.exit, label %32

32:                                               ; preds = %29
  %33 = load ptr, ptr %5, align 8
  %34 = getelementptr inbounds i8, ptr %33, i64 1784
  %35 = load ptr, ptr %34, align 8
  %36 = getelementptr inbounds i8, ptr %3, i64 120
  %37 = load ptr, ptr %36, align 8
  tail call void %35(ptr noundef nonnull %5, ptr noundef %37, ptr noundef nonnull %31, i32 noundef 0) #12
  store ptr null, ptr %30, align 8
  br label %RELEASE_ARRAYS.exit

RELEASE_ARRAYS.exit:                              ; preds = %29, %32
  %38 = load ptr, ptr %5, align 8
  %39 = getelementptr inbounds i8, ptr %38, i64 1368
  %40 = load ptr, ptr %39, align 8
  %41 = getelementptr inbounds i8, ptr %3, i64 88
  %42 = load ptr, ptr %41, align 8
  %43 = tail call i32 %40(ptr noundef nonnull %5, ptr noundef %42) #12
  %44 = load ptr, ptr %5, align 8
  %45 = getelementptr inbounds i8, ptr %44, i64 392
  %46 = load ptr, ptr %45, align 8
  %47 = getelementptr inbounds i8, ptr %3, i64 56
  %48 = load ptr, ptr %47, align 8
  %49 = load ptr, ptr @InputStream_readID, align 8
  %50 = load ptr, ptr %41, align 8
  %51 = tail call i32 (ptr, ptr, ptr, ...) %46(ptr noundef nonnull %5, ptr noundef %48, ptr noundef %49, ptr noundef %50, i32 noundef 0, i32 noundef %43) #12
  %spec.select = tail call i32 @llvm.smin.i32(i32 %51, i32 %43)
  %52 = load ptr, ptr %5, align 8
  %53 = getelementptr inbounds i8, ptr %52, i64 120
  %54 = load ptr, ptr %53, align 8
  %55 = tail call ptr %54(ptr noundef nonnull %5) #12
  %.not38 = icmp eq ptr %55, null
  br i1 %.not38, label %56, label %GET_ARRAYS.exit.thread

56:                                               ; preds = %RELEASE_ARRAYS.exit
  %57 = getelementptr inbounds i8, ptr %3, i64 120
  %58 = load ptr, ptr %57, align 8
  %.not.i40 = icmp eq ptr %58, null
  br i1 %.not.i40, label %72, label %59

59:                                               ; preds = %56
  %60 = load ptr, ptr %5, align 8
  %61 = getelementptr inbounds i8, ptr %60, i64 1368
  %62 = load ptr, ptr %61, align 8
  %63 = tail call i32 %62(ptr noundef nonnull %5, ptr noundef nonnull %58) #12
  %64 = sext i32 %63 to i64
  %65 = getelementptr inbounds i8, ptr %3, i64 112
  store i64 %64, ptr %65, align 8
  %66 = load ptr, ptr %5, align 8
  %67 = getelementptr inbounds i8, ptr %66, i64 1776
  %68 = load ptr, ptr %67, align 8
  %69 = load ptr, ptr %57, align 8
  %70 = tail call ptr %68(ptr noundef nonnull %5, ptr noundef %69, ptr noundef null) #12
  store ptr %70, ptr %30, align 8
  %71 = icmp eq ptr %70, null
  br i1 %71, label %GET_ARRAYS.exit.thread, label %72

72:                                               ; preds = %59, %56
  %73 = load ptr, ptr %41, align 8
  %.not25.i = icmp eq ptr %73, null
  br i1 %.not25.i, label %GET_ARRAYS.exit, label %74

74:                                               ; preds = %72
  %75 = load ptr, ptr %5, align 8
  %76 = getelementptr inbounds i8, ptr %75, i64 1776
  %77 = load ptr, ptr %76, align 8
  %78 = tail call ptr %77(ptr noundef nonnull %5, ptr noundef nonnull %73, ptr noundef null) #12
  store ptr %78, ptr %15, align 8
  %79 = icmp eq ptr %78, null
  br i1 %79, label %80, label %87

80:                                               ; preds = %74
  %81 = load ptr, ptr %30, align 8
  %.not19.i.i = icmp eq ptr %81, null
  br i1 %.not19.i.i, label %GET_ARRAYS.exit.thread, label %82

82:                                               ; preds = %80
  %83 = load ptr, ptr %5, align 8
  %84 = getelementptr inbounds i8, ptr %83, i64 1784
  %85 = load ptr, ptr %84, align 8
  %86 = load ptr, ptr %57, align 8
  tail call void %85(ptr noundef nonnull %5, ptr noundef %86, ptr noundef nonnull %81, i32 noundef 0) #12
  store ptr null, ptr %30, align 8
  br label %GET_ARRAYS.exit.thread

87:                                               ; preds = %74
  %88 = getelementptr inbounds i8, ptr %3, i64 96
  %89 = load i64, ptr %88, align 8
  %90 = and i64 %89, 2147483648
  %91 = icmp eq i64 %90, 0
  br i1 %91, label %92, label %GET_ARRAYS.exit

92:                                               ; preds = %87
  %93 = getelementptr inbounds i8, ptr %78, i64 %89
  store ptr %93, ptr %3, align 8
  br label %GET_ARRAYS.exit

GET_ARRAYS.exit.thread:                           ; preds = %82, %80, %59, %RELEASE_ARRAYS.exit
  %94 = load ptr, ptr %0, align 8
  %95 = load ptr, ptr %94, align 8
  tail call void %95(ptr noundef nonnull %0) #12
  br label %GET_ARRAYS.exit

GET_ARRAYS.exit:                                  ; preds = %92, %87, %72, %GET_ARRAYS.exit.thread
  %96 = icmp slt i32 %spec.select, 1
  br i1 %96, label %97, label %106

97:                                               ; preds = %GET_ARRAYS.exit
  %98 = load ptr, ptr %0, align 8
  %99 = getelementptr inbounds i8, ptr %98, i64 40
  store i32 120, ptr %99, align 8
  %100 = load ptr, ptr %0, align 8
  %101 = getelementptr inbounds i8, ptr %100, i64 8
  %102 = load ptr, ptr %101, align 8
  tail call void %102(ptr noundef nonnull %0, i32 noundef -1) #12
  %103 = load ptr, ptr %15, align 8
  store i8 -1, ptr %103, align 1
  %104 = load ptr, ptr %15, align 8
  %105 = getelementptr inbounds i8, ptr %104, i64 1
  store i8 -39, ptr %105, align 1
  br label %106

106:                                              ; preds = %97, %GET_ARRAYS.exit
  %.1 = phi i32 [ 2, %97 ], [ %spec.select, %GET_ARRAYS.exit ]
  %107 = load ptr, ptr %15, align 8
  store ptr %107, ptr %3, align 8
  %108 = zext nneg i32 %.1 to i64
  %109 = getelementptr inbounds i8, ptr %3, i64 8
  store i64 %108, ptr %109, align 8
  br label %110

110:                                              ; preds = %1, %106
  %.0 = phi i32 [ 1, %106 ], [ 0, %1 ]
  ret i32 %.0
}